target datalayout = "e-m:e-p270:32:32-p271:32:32-p272:64:64-i64:64-i128:128-f80:128-n8:16:32:64-S128"
target triple = "x86_64-pc-linux-gnu"

%struct.curltime = type { i64, i32 }
%struct.Curl_easy = type { i32, i64, i64, ptr, %struct.Curl_llist_node, %struct.Curl_llist_node, i32, i32, %struct.Curl_message, %struct.easy_pollset, %struct.Names, ptr, ptr, ptr, ptr, %struct.SingleRequest, %struct.UserDefined, ptr, ptr, ptr, %struct.Progress, %struct.UrlState, ptr, %struct.PureInfo, %struct.curl_tlssessioninfo }
%struct.Curl_llist_node = type { ptr, ptr, ptr, ptr }
%struct.Curl_message = type { %struct.Curl_llist_node, %struct.CURLMsg }
%struct.CURLMsg = type { i32, ptr, %union.anon }
%union.anon = type { ptr }
%struct.easy_pollset = type { [5 x i32], i32, [5 x i8] }
%struct.Names = type { ptr, i32 }
%struct.SingleRequest = type <{ i64, i64, i64, i64, %struct.curltime, i32, i32, i32, i32, i64, i32, i32, i8, i8, [2 x i8], i32, ptr, ptr, %struct.bufq, i64, i64, ptr, ptr, %union.anon.0, ptr, i8, i32, [3 x i8] }>
%struct.bufq = type { ptr, ptr, ptr, ptr, i64, i64, i64, i32 }
%union.anon.0 = type { ptr }
%struct.UserDefined = type <{ ptr, ptr, ptr, ptr, ptr, ptr, i64, i64, i64, ptr, ptr, i64, ptr, ptr, ptr, ptr, ptr, ptr, ptr, ptr, ptr, ptr, ptr, ptr, ptr, ptr, ptr, ptr, ptr, ptr, ptr, ptr, ptr, ptr, ptr, i64, i64, i64, i64, i64, i64, i64, i64, i64, ptr, ptr, %struct.curl_mimepart, ptr, ptr, ptr, i64, %struct.ssl_config_data, %struct.ssl_config_data, ptr, i16, i8, i8, %struct.ssl_general_config, i32, i32, i32, [4 x i8], ptr, ptr, i64, i32, i8, i8, i8, i8, ptr, ptr, ptr, i32, [4 x i8], [74 x ptr], [8 x ptr], i32, i32, i32, [4 x i8], ptr, i32, [4 x i8], ptr, ptr, ptr, ptr, ptr, i32, i32, i32, i32, i32, i32, i32, i32, i64, ptr, ptr, i64, ptr, i64, ptr, ptr, ptr, ptr, i32, i16, i16, i16, i8, i8, i8, i8, i8, i8, i8, i8, i64, [6 x i8] }>
%struct.curl_mimepart = type { ptr, ptr, i32, i32, ptr, ptr, ptr, ptr, ptr, ptr, ptr, ptr, ptr, ptr, ptr, i64, %struct.mime_state, ptr, %struct.mime_encoder_state, i64 }
%struct.mime_state = type { i32, ptr, i64 }
%struct.mime_encoder_state = type { i64, i64, i64, [256 x i8] }
%struct.ssl_config_data = type { %struct.ssl_primary_config, i64, ptr, ptr, ptr, ptr, ptr, ptr, ptr, i16 }
%struct.ssl_primary_config = type { ptr, ptr, ptr, ptr, ptr, ptr, ptr, ptr, ptr, ptr, ptr, ptr, ptr, ptr, i8, i32, i8, i8 }
%struct.ssl_general_config = type { i32 }
%struct.Progress = type { i64, %struct.pgrs_dir, %struct.pgrs_dir, i64, i64, i32, i32, i64, i64, i64, i64, i64, i64, i64, i64, i64, %struct.curltime, %struct.curltime, %struct.curltime, %struct.curltime, %struct.curltime, [6 x i64], [6 x %struct.curltime], i32, i8 }
%struct.pgrs_dir = type { i64, i64, i64, %struct.pgrs_measure }
%struct.pgrs_measure = type { %struct.curltime, i64 }
%struct.UrlState = type { %struct.curltime, i64, i64, %struct.dynbuf, ptr, i64, ptr, i32, i32, i32, ptr, i32, i64, i32, ptr, %struct.digestdata, %struct.digestdata, %struct.auth, %struct.auth, %struct.Curl_async, ptr, i8, %struct.curltime, %struct.Curl_tree, %struct.Curl_llist, [15 x %struct.time_node], ptr, ptr, i64, i64, i64, i64, [32 x i8], i64, ptr, ptr, ptr, %struct.urlpieces, ptr, ptr, ptr, ptr, ptr, i64, %struct.dynbuf, %struct.Curl_llist, [2 x %struct.curl_header], ptr, i32, ptr, ptr, %struct.store_netrc, %struct.dynamically_allocated_data, i8, i8, i8, i8, i32 }
%struct.digestdata = type { ptr, ptr, ptr, ptr, ptr, ptr, i32, i8, i8 }
%struct.auth = type { i64, i64, i64, i8 }
%struct.Curl_async = type { ptr, ptr, ptr, ptr, i32, i32, i8 }
%struct.Curl_tree = type { ptr, ptr, ptr, ptr, %struct.curltime, ptr }
%struct.time_node = type { %struct.Curl_llist_node, %struct.curltime, i32 }
%struct.urlpieces = type { ptr, ptr, ptr, ptr, ptr, ptr, ptr, ptr }
%struct.dynbuf = type { ptr, i64, i64, i64 }
%struct.Curl_llist = type { ptr, ptr, ptr, i64 }
%struct.curl_header = type { ptr, ptr, i64, i64, i32, ptr }
%struct.store_netrc = type { %struct.dynbuf, ptr, i8 }
%struct.dynamically_allocated_data = type { ptr, ptr, ptr, ptr, ptr, ptr, ptr, ptr, ptr, ptr, ptr, ptr, ptr, ptr }
%struct.PureInfo = type { i32, i32, i32, i64, i64, i64, i64, i64, i64, i64, ptr, ptr, i64, i32, %struct.ip_quadruple, i32, ptr, i32, %struct.curl_certinfo, i32, i8 }
%struct.ip_quadruple = type { [46 x i8], [46 x i8], i32, i32 }
%struct.curl_certinfo = type { i32, ptr }
%struct.curl_tlssessioninfo = type { i32, ptr }

; Function Attrs: nounwind uwtable
define hidden i64 @Curl_timeleft(ptr noundef %0, ptr noundef %1, i1 noundef zeroext %2) #0 {
  %4 = alloca i64, align 8
  %5 = alloca ptr, align 8
  %6 = alloca ptr, align 8
  %7 = alloca i8, align 1
  %8 = alloca i64, align 8
  %9 = alloca i64, align 8
  %10 = alloca %struct.curltime, align 8
  %11 = alloca i32, align 4
  %12 = alloca %struct.curltime, align 8
  %13 = alloca i64, align 8
  store ptr %0, ptr %5, align 8, !tbaa !10
  store ptr %1, ptr %6, align 8, !tbaa !12
  %14 = zext i1 %2 to i8
  store i8 %14, ptr %7, align 1, !tbaa !14
  call void @llvm.lifetime.start.p0(i64 8, ptr %8) #8
  store i64 0, ptr %8, align 8, !tbaa !8
  call void @llvm.lifetime.start.p0(i64 8, ptr %9) #8
  store i64 0, ptr %9, align 8, !tbaa !8
  call void @llvm.lifetime.start.p0(i64 16, ptr %10) #8
  %15 = load ptr, ptr %5, align 8, !tbaa !10
  %16 = getelementptr inbounds nuw %struct.Curl_easy, ptr %15, i32 0, i32 16
  %17 = getelementptr inbounds nuw %struct.UserDefined, ptr %16, i32 0, i32 89
  %18 = load i32, ptr %17, align 8, !tbaa !16
  %19 = icmp ule i32 %18, 0
  br i1 %19, label %20, label %24

20:                                               ; preds = %3
  %21 = load i8, ptr %7, align 1, !tbaa !14, !range !83, !noundef !84
  %22 = trunc i8 %21 to i1
  br i1 %22, label %24, label %23

23:                                               ; preds = %20
  store i64 0, ptr %4, align 8
  store i32 1, ptr %11, align 4
  br label %123

24:                                               ; preds = %20, %3
  %25 = load ptr, ptr %6, align 8, !tbaa !12
  %26 = icmp ne ptr %25, null
  br i1 %26, label %33, label %27

27:                                               ; preds = %24
  call void @llvm.lifetime.start.p0(i64 16, ptr %12) #8
  %28 = call { i64, i32 } @Curl_now()
  %29 = getelementptr inbounds nuw { i64, i32 }, ptr %12, i32 0, i32 0
  %30 = extractvalue { i64, i32 } %28, 0
  store i64 %30, ptr %29, align 8
  %31 = getelementptr inbounds nuw { i64, i32 }, ptr %12, i32 0, i32 1
  %32 = extractvalue { i64, i32 } %28, 1
  store i32 %32, ptr %31, align 8
  call void @llvm.memcpy.p0.p0.i64(ptr align 8 %10, ptr align 8 %12, i64 16, i1 false), !tbaa.struct !85
  call void @llvm.lifetime.end.p0(i64 16, ptr %12) #8
  store ptr %10, ptr %6, align 8, !tbaa !12
  br label %33

33:                                               ; preds = %27, %24
  %34 = load ptr, ptr %5, align 8, !tbaa !10
  %35 = getelementptr inbounds nuw %struct.Curl_easy, ptr %34, i32 0, i32 16
  %36 = getelementptr inbounds nuw %struct.UserDefined, ptr %35, i32 0, i32 89
  %37 = load i32, ptr %36, align 8, !tbaa !16
  %38 = icmp ugt i32 %37, 0
  br i1 %38, label %39, label %68

39:                                               ; preds = %33
  %40 = load ptr, ptr %5, align 8, !tbaa !10
  %41 = getelementptr inbounds nuw %struct.Curl_easy, ptr %40, i32 0, i32 16
  %42 = getelementptr inbounds nuw %struct.UserDefined, ptr %41, i32 0, i32 89
  %43 = load i32, ptr %42, align 8, !tbaa !16
  %44 = zext i32 %43 to i64
  %45 = load ptr, ptr %6, align 8, !tbaa !12
  %46 = load ptr, ptr %5, align 8, !tbaa !10
  %47 = getelementptr inbounds nuw %struct.Curl_easy, ptr %46, i32 0, i32 20
  %48 = getelementptr inbounds nuw %struct.Progress, ptr %47, i32 0, i32 18
  %49 = getelementptr inbounds nuw { i64, i32 }, ptr %45, i32 0, i32 0
  %50 = load i64, ptr %49, align 8
  %51 = getelementptr inbounds nuw { i64, i32 }, ptr %45, i32 0, i32 1
  %52 = load i32, ptr %51, align 8
  %53 = getelementptr inbounds nuw { i64, i32 }, ptr %48, i32 0, i32 0
  %54 = load i64, ptr %53, align 8
  %55 = getelementptr inbounds nuw { i64, i32 }, ptr %48, i32 0, i32 1
  %56 = load i32, ptr %55, align 8
  %57 = call i64 @Curl_timediff(i64 %50, i32 %52, i64 %54, i32 %56)
  %58 = sub nsw i64 %44, %57
  store i64 %58, ptr %8, align 8, !tbaa !8
  %59 = load i64, ptr %8, align 8, !tbaa !8
  %60 = icmp ne i64 %59, 0
  br i1 %60, label %62, label %61

61:                                               ; preds = %39
  store i64 -1, ptr %8, align 8, !tbaa !8
  br label %62

62:                                               ; preds = %61, %39
  %63 = load i8, ptr %7, align 1, !tbaa !14, !range !83, !noundef !84
  %64 = trunc i8 %63 to i1
  br i1 %64, label %67, label %65

65:                                               ; preds = %62
  %66 = load i64, ptr %8, align 8, !tbaa !8
  store i64 %66, ptr %4, align 8
  store i32 1, ptr %11, align 4
  br label %123

67:                                               ; preds = %62
  br label %68

68:                                               ; preds = %67, %33
  %69 = load i8, ptr %7, align 1, !tbaa !14, !range !83, !noundef !84
  %70 = trunc i8 %69 to i1
  br i1 %70, label %71, label %113

71:                                               ; preds = %68
  call void @llvm.lifetime.start.p0(i64 8, ptr %13) #8
  %72 = load ptr, ptr %5, align 8, !tbaa !10
  %73 = getelementptr inbounds nuw %struct.Curl_easy, ptr %72, i32 0, i32 16
  %74 = getelementptr inbounds nuw %struct.UserDefined, ptr %73, i32 0, i32 90
  %75 = load i32, ptr %74, align 4, !tbaa !87
  %76 = icmp ugt i32 %75, 0
  br i1 %76, label %77, label %82

77:                                               ; preds = %71
  %78 = load ptr, ptr %5, align 8, !tbaa !10
  %79 = getelementptr inbounds nuw %struct.Curl_easy, ptr %78, i32 0, i32 16
  %80 = getelementptr inbounds nuw %struct.UserDefined, ptr %79, i32 0, i32 90
  %81 = load i32, ptr %80, align 4, !tbaa !87
  br label %83

82:                                               ; preds = %71
  br label %83

83:                                               ; preds = %82, %77
  %84 = phi i32 [ %81, %77 ], [ 300000, %82 ]
  %85 = zext i32 %84 to i64
  store i64 %85, ptr %13, align 8, !tbaa !8
  %86 = load i64, ptr %13, align 8, !tbaa !8
  %87 = load ptr, ptr %6, align 8, !tbaa !12
  %88 = load ptr, ptr %5, align 8, !tbaa !10
  %89 = getelementptr inbounds nuw %struct.Curl_easy, ptr %88, i32 0, i32 20
  %90 = getelementptr inbounds nuw %struct.Progress, ptr %89, i32 0, i32 17
  %91 = getelementptr inbounds nuw { i64, i32 }, ptr %87, i32 0, i32 0
  %92 = load i64, ptr %91, align 8
  %93 = getelementptr inbounds nuw { i64, i32 }, ptr %87, i32 0, i32 1
  %94 = load i32, ptr %93, align 8
  %95 = getelementptr inbounds nuw { i64, i32 }, ptr %90, i32 0, i32 0
  %96 = load i64, ptr %95, align 8
  %97 = getelementptr inbounds nuw { i64, i32 }, ptr %90, i32 0, i32 1
  %98 = load i32, ptr %97, align 8
  %99 = call i64 @Curl_timediff(i64 %92, i32 %94, i64 %96, i32 %98)
  %100 = sub nsw i64 %86, %99
  store i64 %100, ptr %9, align 8, !tbaa !8
  %101 = load i64, ptr %9, align 8, !tbaa !8
  %102 = icmp ne i64 %101, 0
  br i1 %102, label %104, label %103

103:                                              ; preds = %83
  store i64 -1, ptr %9, align 8, !tbaa !8
  br label %104

104:                                              ; preds = %103, %83
  %105 = load i64, ptr %8, align 8, !tbaa !8
  %106 = icmp ne i64 %105, 0
  br i1 %106, label %109, label %107

107:                                              ; preds = %104
  %108 = load i64, ptr %9, align 8, !tbaa !8
  store i64 %108, ptr %4, align 8
  store i32 1, ptr %11, align 4
  br label %110

109:                                              ; preds = %104
  store i32 0, ptr %11, align 4
  br label %110

110:                                              ; preds = %109, %107
  call void @llvm.lifetime.end.p0(i64 8, ptr %13) #8
  %111 = load i32, ptr %11, align 4
  switch i32 %111, label %123 [
    i32 0, label %112
  ]

112:                                              ; preds = %110
  br label %113

113:                                              ; preds = %112, %68
  %114 = load i64, ptr %9, align 8, !tbaa !8
  %115 = load i64, ptr %8, align 8, !tbaa !8
  %116 = icmp slt i64 %114, %115
  br i1 %116, label %117, label %119

117:                                              ; preds = %113
  %118 = load i64, ptr %9, align 8, !tbaa !8
  br label %121

119:                                              ; preds = %113
  %120 = load i64, ptr %8, align 8, !tbaa !8
  br label %121

121:                                              ; preds = %119, %117
  %122 = phi i64 [ %118, %117 ], [ %120, %119 ]
  store i64 %122, ptr %4, align 8
  store i32 1, ptr %11, align 4
  br label %123

123:                                              ; preds = %121, %110, %65, %23
  call void @llvm.lifetime.end.p0(i64 16, ptr %10) #8
  call void @llvm.lifetime.end.p0(i64 8, ptr %9) #8
  call void @llvm.lifetime.end.p0(i64 8, ptr %8) #8
  %124 = load i64, ptr %4, align 8
  ret i64 %124
}