; Function Attrs: nounwind uwtable
define hidden range(i64 -9223372036854775807, -9223372036854775808) i64 @Curl_timeleft(ptr noundef readonly captures(none) %0, ptr noundef readonly %1, i1 noundef zeroext %2) local_unnamed_addr #0 {
  %.sroa.0 = alloca i64, align 8
  %.sroa.5 = alloca i32, align 8
  call void @llvm.lifetime.start.p0(i64 8, ptr nonnull %.sroa.0)
  call void @llvm.lifetime.start.p0(i64 4, ptr nonnull %.sroa.5)
  %4 = getelementptr inbounds nuw i8, ptr %0, i64 2528
  %5 = load i32, ptr %4, align 8, !tbaa !3
  %6 = icmp ne i32 %5, 0
  %brmerge = or i1 %2, %6
  br i1 %brmerge, label %7, label %37

7:                                                ; preds = %3
  %.025.sroa.gep31 = getelementptr inbounds nuw i8, ptr %1, i64 8
  %.not = icmp eq ptr %1, null
  br i1 %.not, label %8, label %12

8:                                                ; preds = %7
  %9 = tail call { i64, i32 } @Curl_now() #10
  %10 = extractvalue { i64, i32 } %9, 0
  %11 = extractvalue { i64, i32 } %9, 1
  store i64 %10, ptr %.sroa.0, align 8, !tbaa !75
  store i32 %11, ptr %.sroa.5, align 8, !tbaa !76
  %.pre = load i32, ptr %4, align 8, !tbaa !3
  br label %12

12:                                               ; preds = %8, %7
  %13 = phi i32 [ %5, %7 ], [ %.pre, %8 ]
  %.025.sroa.phi33 = phi ptr [ %1, %7 ], [ %.sroa.0, %8 ]
  %.025.sroa.phi36 = phi ptr [ %.025.sroa.gep31, %7 ], [ %.sroa.5, %8 ]
  %.not42 = icmp eq i32 %13, 0
  br i1 %.not42, label %24, label %14

14:                                               ; preds = %12
  %15 = zext i32 %13 to i64
  %16 = getelementptr inbounds nuw i8, ptr %0, i64 2928
  %17 = load i64, ptr %.025.sroa.phi33, align 8
  %18 = load i32, ptr %.025.sroa.phi36, align 8
  %19 = load i64, ptr %16, align 8
  %20 = getelementptr inbounds nuw i8, ptr %0, i64 2936
  %21 = load i32, ptr %20, align 8
  %22 = tail call i64 @Curl_timediff(i64 %17, i32 %18, i64 %19, i32 %21) #10
  %23 = sub nsw i64 %15, %22
  %.not43 = icmp eq i64 %22, %15
  %spec.store.select = select i1 %.not43, i64 -1, i64 %23
  br i1 %2, label %.thread, label %37

24:                                               ; preds = %12
  br i1 %2, label %.thread, label %35

.thread:                                          ; preds = %14, %24
  %.02649 = phi i64 [ 0, %24 ], [ %spec.store.select, %14 ]
  %25 = getelementptr inbounds nuw i8, ptr %0, i64 2532
  %26 = load i32, ptr %25, align 4, !tbaa !77
  %.not44 = icmp eq i32 %26, 0
  %narrow = select i1 %.not44, i32 300000, i32 %26
  %spec.select = zext i32 %narrow to i64
  %27 = getelementptr inbounds nuw i8, ptr %0, i64 2912
  %28 = load i64, ptr %.025.sroa.phi33, align 8
  %29 = load i32, ptr %.025.sroa.phi36, align 8
  %30 = load i64, ptr %27, align 8
  %31 = getelementptr inbounds nuw i8, ptr %0, i64 2920
  %32 = load i32, ptr %31, align 8
  %33 = tail call i64 @Curl_timediff(i64 %28, i32 %29, i64 %30, i32 %32) #10
  %34 = sub nsw i64 %spec.select, %33
  %.not45 = icmp eq i64 %33, %spec.select
  %spec.store.select1 = select i1 %.not45, i64 -1, i64 %34
  %.not46.not = icmp eq i64 %.02649, 0
  br i1 %.not46.not, label %37, label %35

35:                                               ; preds = %.thread, %24
  %.02650 = phi i64 [ %.02649, %.thread ], [ 0, %24 ]
  %.027 = phi i64 [ %spec.store.select1, %.thread ], [ 0, %24 ]
  %36 = tail call i64 @llvm.smin.i64(i64 %.027, i64 %.02650)
  br label %37

37:                                               ; preds = %14, %3, %.thread, %35
  %.0 = phi i64 [ %36, %35 ], [ %spec.store.select1, %.thread ], [ 0, %3 ], [ %spec.store.select, %14 ]
  call void @llvm.lifetime.end.p0(i64 8, ptr nonnull %.sroa.0)
  call void @llvm.lifetime.end.p0(i64 4, ptr nonnull %.sroa.5)
  ret i64 %.0
}